target datalayout = "e-m:e-p270:32:32-p271:32:32-p272:64:64-i64:64-i128:128-f80:128-n8:16:32:64-S128"
target triple = "x86_64-pc-linux-gnu"

; Function Attrs: mustprogress nounwind uwtable
define hidden noundef ptr @_ZN2cv15getCopyMaskFuncEm(i64 noundef %0) #4 {
  %2 = alloca i64, align 8
  store i64 %0, ptr %2, align 8
  %3 = load i64, ptr %2, align 8
  %4 = icmp ule i64 %3, 32
  br i1 %4, label %5, label %14

5:                                                ; preds = %1
  %6 = load i64, ptr %2, align 8
  %7 = getelementptr inbounds [33 x ptr], ptr @_ZN2cv11copyMaskTabE, i64 0, i64 %6
  %8 = load ptr, ptr %7, align 8
  %9 = icmp ne ptr %8, null
  br i1 %9, label %10, label %14

10:                                               ; preds = %5
  %11 = load i64, ptr %2, align 8
  %12 = getelementptr inbounds [33 x ptr], ptr @_ZN2cv11copyMaskTabE, i64 0, i64 %11
  %13 = load ptr, ptr %12, align 8
  br label %15

14:                                               ; preds = %5, %1
  br label %15

15:                                               ; preds = %14, %10
  %16 = phi ptr [ %13, %10 ], [ @_ZN2cvL15copyMaskGenericEPKhmS1_mPhmNS_5Size_IiEEPv, %14 ]
  ret ptr %16
}