; Function Attrs: mustprogress nofree norecurse nosync nounwind willreturn memory(read, argmem: none, inaccessiblemem: none) uwtable
define hidden noundef nonnull ptr @_ZN2cv15getCopyMaskFuncEm(i64 noundef %0) local_unnamed_addr #7 {
  %2 = icmp ult i64 %0, 33
  br i1 %2, label %3, label %6

3:                                                ; preds = %1
  %4 = getelementptr inbounds [33 x ptr], ptr @_ZN2cv11copyMaskTabE, i64 0, i64 %0
  %5 = load ptr, ptr %4, align 8
  %.not = icmp eq ptr %5, null
  %spec.select = select i1 %.not, ptr @_ZN2cvL15copyMaskGenericEPKhmS1_mPhmNS_5Size_IiEEPv, ptr %5
  br label %6

6:                                                ; preds = %3, %1
  %7 = phi ptr [ @_ZN2cvL15copyMaskGenericEPKhmS1_mPhmNS_5Size_IiEEPv, %1 ], [ %spec.select, %3 ]
  ret ptr %7
}